target datalayout = "e-m:e-p270:32:32-p271:32:32-p272:64:64-i64:64-i128:128-f80:128-n8:16:32:64-S128"
target triple = "x86_64-pc-linux-gnu"

%struct.JSValue = type { %union.JSValueUnion, i64 }
%union.JSValueUnion = type { double }
%struct.JSRefCountHeader = type { i32 }
%struct.JSThreadState = type { %struct.list_head, %struct.list_head, %struct.list_head, %struct.list_head, i32, i32, ptr, ptr }
%struct.list_head = type { ptr, ptr }
%struct.JSOSTimer = type { %struct.list_head, i32, i64, %struct.JSValue }
%struct.timespec = type { i64, i64 }

; Function Attrs: nounwind uwtable
define internal void @__list_add(ptr noundef %0, ptr noundef %1, ptr noundef %2) #0 {
  %4 = alloca ptr, align 8
  %5 = alloca ptr, align 8
  %6 = alloca ptr, align 8
  store ptr %0, ptr %4, align 8
  store ptr %1, ptr %5, align 8
  store ptr %2, ptr %6, align 8
  %7 = load ptr, ptr %4, align 8
  %8 = load ptr, ptr %5, align 8
  %9 = getelementptr inbounds %struct.list_head, ptr %8, i32 0, i32 1
  store ptr %7, ptr %9, align 8
  %10 = load ptr, ptr %5, align 8
  %11 = load ptr, ptr %4, align 8
  %12 = getelementptr inbounds %struct.list_head, ptr %11, i32 0, i32 0
  store ptr %10, ptr %12, align 8
  %13 = load ptr, ptr %6, align 8
  %14 = load ptr, ptr %4, align 8
  %15 = getelementptr inbounds %struct.list_head, ptr %14, i32 0, i32 1
  store ptr %13, ptr %15, align 8
  %16 = load ptr, ptr %4, align 8
  %17 = load ptr, ptr %6, align 8
  %18 = getelementptr inbounds %struct.list_head, ptr %17, i32 0, i32 0
  store ptr %16, ptr %18, align 8
  ret void
}

; Function Attrs: nounwind uwtable
define internal void @list_add_tail(ptr noundef %0, ptr noundef %1) #0 {
  %3 = alloca ptr, align 8
  %4 = alloca ptr, align 8
  store ptr %0, ptr %3, align 8
  store ptr %1, ptr %4, align 8
  %5 = load ptr, ptr %3, align 8
  %6 = load ptr, ptr %4, align 8
  %7 = getelementptr inbounds %struct.list_head, ptr %6, i32 0, i32 0
  %8 = load ptr, ptr %7, align 8
  %9 = load ptr, ptr %4, align 8
  call void @__list_add(ptr noundef %5, ptr noundef %8, ptr noundef %9)
  ret void
}

; Function Attrs: nounwind uwtable
define internal { i64, i64 } @JS_DupValue(ptr noundef %0, i64 %1, i64 %2) #0 {
  %4 = alloca %struct.JSValue, align 8
  %5 = alloca %struct.JSValue, align 8
  %6 = alloca ptr, align 8
  %7 = alloca ptr, align 8
  %8 = getelementptr inbounds { i64, i64 }, ptr %5, i32 0, i32 0
  store i64 %1, ptr %8, align 8
  %9 = getelementptr inbounds { i64, i64 }, ptr %5, i32 0, i32 1
  store i64 %2, ptr %9, align 8
  store ptr %0, ptr %6, align 8
  %10 = getelementptr inbounds %struct.JSValue, ptr %5, i32 0, i32 1
  %11 = load i64, ptr %10, align 8
  %12 = trunc i64 %11 to i32
  %13 = icmp uge i32 %12, -11
  br i1 %13, label %14, label %21

14:                                               ; preds = %3
  %15 = getelementptr inbounds %struct.JSValue, ptr %5, i32 0, i32 0
  %16 = load ptr, ptr %15, align 8
  store ptr %16, ptr %7, align 8
  %17 = load ptr, ptr %7, align 8
  %18 = getelementptr inbounds %struct.JSRefCountHeader, ptr %17, i32 0, i32 0
  %19 = load i32, ptr %18, align 4
  %20 = add i32 %19, 1
  store i32 %20, ptr %18, align 4
  br label %21

21:                                               ; preds = %14, %3
  call void @llvm.memcpy.p0.p0.i64(ptr align 8 %4, ptr align 8 %5, i64 16, i1 false)
  %22 = load { i64, i64 }, ptr %4, align 8
  ret { i64, i64 } %22
}

; Function Attrs: nounwind uwtable
define internal i64 @get_time_ms() #0 {
  %1 = alloca %struct.timespec, align 8
  %2 = call i32 @clock_gettime(i32 noundef 1, ptr noundef %1) #12
  %3 = getelementptr inbounds %struct.timespec, ptr %1, i32 0, i32 0
  %4 = load i64, ptr %3, align 8
  %5 = mul i64 %4, 1000
  %6 = getelementptr inbounds %struct.timespec, ptr %1, i32 0, i32 1
  %7 = load i64, ptr %6, align 8
  %8 = sdiv i64 %7, 1000000
  %9 = add i64 %5, %8
  ret i64 %9
}

; Function Attrs: nounwind uwtable
define internal void @JS_FreeValue(ptr noundef %0, i64 %1, i64 %2) #0 {
  %4 = alloca %struct.JSValue, align 8
  %5 = alloca ptr, align 8
  %6 = alloca ptr, align 8
  %7 = getelementptr inbounds { i64, i64 }, ptr %4, i32 0, i32 0
  store i64 %1, ptr %7, align 8
  %8 = getelementptr inbounds { i64, i64 }, ptr %4, i32 0, i32 1
  store i64 %2, ptr %8, align 8
  store ptr %0, ptr %5, align 8
  %9 = getelementptr inbounds %struct.JSValue, ptr %4, i32 0, i32 1
  %10 = load i64, ptr %9, align 8
  %11 = trunc i64 %10 to i32
  %12 = icmp uge i32 %11, -11
  br i1 %12, label %13, label %28

13:                                               ; preds = %3
  %14 = getelementptr inbounds %struct.JSValue, ptr %4, i32 0, i32 0
  %15 = load ptr, ptr %14, align 8
  store ptr %15, ptr %6, align 8
  %16 = load ptr, ptr %6, align 8
  %17 = getelementptr inbounds %struct.JSRefCountHeader, ptr %16, i32 0, i32 0
  %18 = load i32, ptr %17, align 4
  %19 = add i32 %18, -1
  store i32 %19, ptr %17, align 4
  %20 = icmp sle i32 %19, 0
  br i1 %20, label %21, label %27

21:                                               ; preds = %13
  %22 = load ptr, ptr %5, align 8
  %23 = getelementptr inbounds { i64, i64 }, ptr %4, i32 0, i32 0
  %24 = load i64, ptr %23, align 8
  %25 = getelementptr inbounds { i64, i64 }, ptr %4, i32 0, i32 1
  %26 = load i64, ptr %25, align 8
  call void @__JS_FreeValue(ptr noundef %22, i64 %24, i64 %26)
  br label %27

27:                                               ; preds = %21, %13
  br label %28

28:                                               ; preds = %27, %3
  ret void
}

; Function Attrs: nounwind uwtable
define internal i32 @JS_IsException(i64 %0, i64 %1) #0 {
  %3 = alloca %struct.JSValue, align 8
  %4 = getelementptr inbounds { i64, i64 }, ptr %3, i32 0, i32 0
  store i64 %0, ptr %4, align 8
  %5 = getelementptr inbounds { i64, i64 }, ptr %3, i32 0, i32 1
  store i64 %1, ptr %5, align 8
  %6 = getelementptr inbounds %struct.JSValue, ptr %3, i32 0, i32 1
  %7 = load i64, ptr %6, align 8
  %8 = trunc i64 %7 to i32
  %9 = icmp eq i32 %8, 6
  %10 = xor i1 %9, true
  %11 = xor i1 %10, true
  %12 = zext i1 %11 to i32
  %13 = sext i32 %12 to i64
  %14 = trunc i64 %13 to i32
  ret i32 %14
}

; Function Attrs: nounwind uwtable
define internal { i64, i64 } @js_os_sleepAsync(ptr noundef %0, i64 %1, i64 %2, i32 noundef %3, ptr noundef %4) #0 {
  %6 = alloca %struct.JSValue, align 8
  %7 = alloca %struct.JSValue, align 8
  %8 = alloca ptr, align 8
  %9 = alloca i32, align 4
  %10 = alloca ptr, align 8
  %11 = alloca ptr, align 8
  %12 = alloca ptr, align 8
  %13 = alloca i64, align 8
  %14 = alloca ptr, align 8
  %15 = alloca %struct.JSValue, align 8
  %16 = alloca [2 x %struct.JSValue], align 16
  %17 = alloca %struct.JSValue, align 8
  %18 = alloca %struct.JSValue, align 8
  %19 = getelementptr inbounds { i64, i64 }, ptr %7, i32 0, i32 0
  store i64 %1, ptr %19, align 8
  %20 = getelementptr inbounds { i64, i64 }, ptr %7, i32 0, i32 1
  store i64 %2, ptr %20, align 8
  store ptr %0, ptr %8, align 8
  store i32 %3, ptr %9, align 4
  store ptr %4, ptr %10, align 8
  %21 = load ptr, ptr %8, align 8
  %22 = call ptr @JS_GetRuntime(ptr noundef %21)
  store ptr %22, ptr %11, align 8
  %23 = load ptr, ptr %11, align 8
  %24 = call ptr @JS_GetRuntimeOpaque(ptr noundef %23)
  store ptr %24, ptr %12, align 8
  %25 = load ptr, ptr %8, align 8
  %26 = load ptr, ptr %10, align 8
  %27 = getelementptr %struct.JSValue, ptr %26, i64 0
  %28 = getelementptr inbounds { i64, i64 }, ptr %27, i32 0, i32 0
  %29 = load i64, ptr %28, align 8
  %30 = getelementptr inbounds { i64, i64 }, ptr %27, i32 0, i32 1
  %31 = load i64, ptr %30, align 8
  %32 = call i32 @JS_ToInt64(ptr noundef %25, ptr noundef %13, i64 %29, i64 %31)
  %33 = icmp ne i32 %32, 0
  br i1 %33, label %34, label %37

34:                                               ; preds = %5
  %35 = getelementptr inbounds %struct.JSValue, ptr %6, i32 0, i32 0
  store i32 0, ptr %35, align 8
  %36 = getelementptr inbounds %struct.JSValue, ptr %6, i32 0, i32 1
  store i64 6, ptr %36, align 8
  br label %116

37:                                               ; preds = %5
  %38 = load ptr, ptr %8, align 8
  %39 = getelementptr inbounds [2 x %struct.JSValue], ptr %16, i64 0, i64 0
  %40 = call { i64, i64 } @JS_NewPromiseCapability(ptr noundef %38, ptr noundef %39)
  %41 = getelementptr inbounds { i64, i64 }, ptr %17, i32 0, i32 0
  %42 = extractvalue { i64, i64 } %40, 0
  store i64 %42, ptr %41, align 8
  %43 = getelementptr inbounds { i64, i64 }, ptr %17, i32 0, i32 1
  %44 = extractvalue { i64, i64 } %40, 1
  store i64 %44, ptr %43, align 8
  call void @llvm.memcpy.p0.p0.i64(ptr align 8 %15, ptr align 8 %17, i64 16, i1 false)
  %45 = getelementptr inbounds { i64, i64 }, ptr %15, i32 0, i32 0
  %46 = load i64, ptr %45, align 8
  %47 = getelementptr inbounds { i64, i64 }, ptr %15, i32 0, i32 1
  %48 = load i64, ptr %47, align 8
  %49 = call i32 @JS_IsException(i64 %46, i64 %48)
  %50 = icmp ne i32 %49, 0
  br i1 %50, label %51, label %54

51:                                               ; preds = %37
  %52 = getelementptr inbounds %struct.JSValue, ptr %6, i32 0, i32 0
  store i32 0, ptr %52, align 8
  %53 = getelementptr inbounds %struct.JSValue, ptr %6, i32 0, i32 1
  store i64 6, ptr %53, align 8
  br label %116

54:                                               ; preds = %37
  %55 = load ptr, ptr %8, align 8
  %56 = call ptr @js_mallocz(ptr noundef %55, i64 noundef 48)
  store ptr %56, ptr %14, align 8
  %57 = load ptr, ptr %14, align 8
  %58 = icmp ne ptr %57, null
  br i1 %58, label %79, label %59

59:                                               ; preds = %54
  %60 = load ptr, ptr %8, align 8
  %61 = getelementptr inbounds { i64, i64 }, ptr %15, i32 0, i32 0
  %62 = load i64, ptr %61, align 8
  %63 = getelementptr inbounds { i64, i64 }, ptr %15, i32 0, i32 1
  %64 = load i64, ptr %63, align 8
  call void @JS_FreeValue(ptr noundef %60, i64 %62, i64 %64)
  %65 = load ptr, ptr %8, align 8
  %66 = getelementptr [2 x %struct.JSValue], ptr %16, i64 0, i64 0
  %67 = getelementptr inbounds { i64, i64 }, ptr %66, i32 0, i32 0
  %68 = load i64, ptr %67, align 16
  %69 = getelementptr inbounds { i64, i64 }, ptr %66, i32 0, i32 1
  %70 = load i64, ptr %69, align 8
  call void @JS_FreeValue(ptr noundef %65, i64 %68, i64 %70)
  %71 = load ptr, ptr %8, align 8
  %72 = getelementptr [2 x %struct.JSValue], ptr %16, i64 0, i64 1
  %73 = getelementptr inbounds { i64, i64 }, ptr %72, i32 0, i32 0
  %74 = load i64, ptr %73, align 16
  %75 = getelementptr inbounds { i64, i64 }, ptr %72, i32 0, i32 1
  %76 = load i64, ptr %75, align 8
  call void @JS_FreeValue(ptr noundef %71, i64 %74, i64 %76)
  %77 = getelementptr inbounds %struct.JSValue, ptr %6, i32 0, i32 0
  store i32 0, ptr %77, align 8
  %78 = getelementptr inbounds %struct.JSValue, ptr %6, i32 0, i32 1
  store i64 6, ptr %78, align 8
  br label %116

79:                                               ; preds = %54
  %80 = load ptr, ptr %14, align 8
  %81 = getelementptr inbounds %struct.JSOSTimer, ptr %80, i32 0, i32 1
  store i32 -1, ptr %81, align 8
  %82 = call i64 @get_time_ms()
  %83 = load i64, ptr %13, align 8
  %84 = add i64 %82, %83
  %85 = load ptr, ptr %14, align 8
  %86 = getelementptr inbounds %struct.JSOSTimer, ptr %85, i32 0, i32 2
  store i64 %84, ptr %86, align 8
  %87 = load ptr, ptr %14, align 8
  %88 = getelementptr inbounds %struct.JSOSTimer, ptr %87, i32 0, i32 3
  %89 = load ptr, ptr %8, align 8
  %90 = getelementptr [2 x %struct.JSValue], ptr %16, i64 0, i64 0
  %91 = getelementptr inbounds { i64, i64 }, ptr %90, i32 0, i32 0
  %92 = load i64, ptr %91, align 16
  %93 = getelementptr inbounds { i64, i64 }, ptr %90, i32 0, i32 1
  %94 = load i64, ptr %93, align 8
  %95 = call { i64, i64 } @JS_DupValue(ptr noundef %89, i64 %92, i64 %94)
  %96 = getelementptr inbounds { i64, i64 }, ptr %18, i32 0, i32 0
  %97 = extractvalue { i64, i64 } %95, 0
  store i64 %97, ptr %96, align 8
  %98 = getelementptr inbounds { i64, i64 }, ptr %18, i32 0, i32 1
  %99 = extractvalue { i64, i64 } %95, 1
  store i64 %99, ptr %98, align 8
  call void @llvm.memcpy.p0.p0.i64(ptr align 8 %88, ptr align 8 %18, i64 16, i1 false)
  %100 = load ptr, ptr %14, align 8
  %101 = getelementptr inbounds %struct.JSOSTimer, ptr %100, i32 0, i32 0
  %102 = load ptr, ptr %12, align 8
  %103 = getelementptr inbounds %struct.JSThreadState, ptr %102, i32 0, i32 2
  call void @list_add_tail(ptr noundef %101, ptr noundef %103)
  %104 = load ptr, ptr %8, align 8
  %105 = getelementptr [2 x %struct.JSValue], ptr %16, i64 0, i64 0
  %106 = getelementptr inbounds { i64, i64 }, ptr %105, i32 0, i32 0
  %107 = load i64, ptr %106, align 16
  %108 = getelementptr inbounds { i64, i64 }, ptr %105, i32 0, i32 1
  %109 = load i64, ptr %108, align 8
  call void @JS_FreeValue(ptr noundef %104, i64 %107, i64 %109)
  %110 = load ptr, ptr %8, align 8
  %111 = getelementptr [2 x %struct.JSValue], ptr %16, i64 0, i64 1
  %112 = getelementptr inbounds { i64, i64 }, ptr %111, i32 0, i32 0
  %113 = load i64, ptr %112, align 16
  %114 = getelementptr inbounds { i64, i64 }, ptr %111, i32 0, i32 1
  %115 = load i64, ptr %114, align 8
  call void @JS_FreeValue(ptr noundef %110, i64 %113, i64 %115)
  call void @llvm.memcpy.p0.p0.i64(ptr align 8 %6, ptr align 8 %15, i64 16, i1 false)
  br label %116

116:                                              ; preds = %79, %59, %51, %34
  %117 = load { i64, i64 }, ptr %6, align 8
  ret { i64, i64 } %117
}