; Function Attrs: nounwind uwtable
define internal { i64, i64 } @js_os_sleepAsync(ptr noundef %0, i64 %1, i64 %2, i32 %3, ptr nocapture noundef readonly %4) #0 {
  %6 = alloca %struct.timespec, align 8
  %7 = alloca i64, align 8
  %8 = alloca [2 x %struct.JSValue], align 16
  %9 = tail call ptr @JS_GetRuntime(ptr noundef %0) #29
  %10 = tail call ptr @JS_GetRuntimeOpaque(ptr noundef %9) #29
  %11 = load i64, ptr %4, align 8
  %12 = getelementptr inbounds i8, ptr %4, i64 8
  %13 = load i64, ptr %12, align 8
  %14 = call i32 @JS_ToInt64(ptr noundef %0, ptr noundef nonnull %7, i64 %11, i64 %13) #29
  %.not = icmp eq i32 %14, 0
  br i1 %.not, label %15, label %JS_FreeValue.exit31

15:                                               ; preds = %5
  %16 = call { i64, i64 } @JS_NewPromiseCapability(ptr noundef %0, ptr noundef nonnull %8) #29
  %17 = extractvalue { i64, i64 } %16, 0
  %18 = extractvalue { i64, i64 } %16, 1
  %19 = and i64 %18, 4294967295
  %.not34 = icmp eq i64 %19, 6
  br i1 %.not34, label %JS_FreeValue.exit31, label %20

20:                                               ; preds = %15
  %21 = call ptr @js_mallocz(ptr noundef %0, i64 noundef 48) #29
  %.not29 = icmp eq ptr %21, null
  br i1 %.not29, label %22, label %54

22:                                               ; preds = %20
  %23 = trunc i64 %18 to i32
  %24 = icmp ugt i32 %23, -12
  br i1 %24, label %25, label %JS_FreeValue.exit

25:                                               ; preds = %22
  %26 = inttoptr i64 %17 to ptr
  %27 = load i32, ptr %26, align 4
  %28 = add i32 %27, -1
  store i32 %28, ptr %26, align 4
  %29 = icmp slt i32 %28, 1
  br i1 %29, label %30, label %JS_FreeValue.exit

30:                                               ; preds = %25
  call void @__JS_FreeValue(ptr noundef %0, i64 %17, i64 %18) #29
  br label %JS_FreeValue.exit

JS_FreeValue.exit:                                ; preds = %22, %25, %30
  %31 = load i64, ptr %8, align 16
  %32 = getelementptr inbounds i8, ptr %8, i64 8
  %33 = load i64, ptr %32, align 8
  %34 = trunc i64 %33 to i32
  %35 = icmp ugt i32 %34, -12
  br i1 %35, label %36, label %JS_FreeValue.exit30

36:                                               ; preds = %JS_FreeValue.exit
  %37 = inttoptr i64 %31 to ptr
  %38 = load i32, ptr %37, align 4
  %39 = add i32 %38, -1
  store i32 %39, ptr %37, align 4
  %40 = icmp slt i32 %39, 1
  br i1 %40, label %41, label %JS_FreeValue.exit30

41:                                               ; preds = %36
  call void @__JS_FreeValue(ptr noundef %0, i64 %31, i64 %33) #29
  br label %JS_FreeValue.exit30

JS_FreeValue.exit30:                              ; preds = %JS_FreeValue.exit, %36, %41
  %42 = getelementptr inbounds i8, ptr %8, i64 16
  %43 = load i64, ptr %42, align 16
  %44 = getelementptr inbounds i8, ptr %8, i64 24
  %45 = load i64, ptr %44, align 8
  %46 = trunc i64 %45 to i32
  %47 = icmp ugt i32 %46, -12
  br i1 %47, label %48, label %JS_FreeValue.exit31

48:                                               ; preds = %JS_FreeValue.exit30
  %49 = inttoptr i64 %43 to ptr
  %50 = load i32, ptr %49, align 4
  %51 = add i32 %50, -1
  store i32 %51, ptr %49, align 4
  %52 = icmp slt i32 %51, 1
  br i1 %52, label %53, label %JS_FreeValue.exit31

53:                                               ; preds = %48
  call void @__JS_FreeValue(ptr noundef %0, i64 %43, i64 %45) #29
  br label %JS_FreeValue.exit31

54:                                               ; preds = %20
  %55 = getelementptr inbounds i8, ptr %21, i64 16
  store i32 -1, ptr %55, align 8
  call void @llvm.lifetime.start.p0(i64 16, ptr nonnull %6)
  %56 = call i32 @clock_gettime(i32 noundef 1, ptr noundef nonnull %6) #29
  %57 = load i64, ptr %6, align 8
  %58 = mul i64 %57, 1000
  %59 = getelementptr inbounds i8, ptr %6, i64 8
  %60 = load i64, ptr %59, align 8
  %61 = sdiv i64 %60, 1000000
  %62 = add i64 %61, %58
  call void @llvm.lifetime.end.p0(i64 16, ptr nonnull %6)
  %63 = load i64, ptr %7, align 8
  %64 = add i64 %62, %63
  %65 = getelementptr inbounds i8, ptr %21, i64 24
  store i64 %64, ptr %65, align 8
  %66 = getelementptr inbounds i8, ptr %21, i64 32
  %67 = load i64, ptr %8, align 16
  %68 = getelementptr inbounds i8, ptr %8, i64 8
  %69 = load i64, ptr %68, align 8
  %70 = trunc i64 %69 to i32
  %71 = icmp ugt i32 %70, -12
  br i1 %71, label %72, label %JS_DupValue.exit

72:                                               ; preds = %54
  %73 = inttoptr i64 %67 to ptr
  %74 = load i32, ptr %73, align 4
  %75 = add i32 %74, 1
  store i32 %75, ptr %73, align 4
  br label %JS_DupValue.exit

JS_DupValue.exit:                                 ; preds = %54, %72
  store i64 %67, ptr %66, align 8
  %.sroa.2.0..sroa_idx = getelementptr inbounds i8, ptr %21, i64 40
  store i64 %69, ptr %.sroa.2.0..sroa_idx, align 8
  %76 = getelementptr inbounds i8, ptr %10, i64 32
  %77 = load ptr, ptr %76, align 8
  %78 = getelementptr inbounds i8, ptr %77, i64 8
  store ptr %21, ptr %78, align 8
  store ptr %77, ptr %21, align 8
  %79 = getelementptr inbounds i8, ptr %21, i64 8
  store ptr %76, ptr %79, align 8
  store ptr %21, ptr %76, align 8
  %80 = load i64, ptr %8, align 16
  %81 = load i64, ptr %68, align 8
  %82 = trunc i64 %81 to i32
  %83 = icmp ugt i32 %82, -12
  br i1 %83, label %84, label %JS_FreeValue.exit32

84:                                               ; preds = %JS_DupValue.exit
  %85 = inttoptr i64 %80 to ptr
  %86 = load i32, ptr %85, align 4
  %87 = add i32 %86, -1
  store i32 %87, ptr %85, align 4
  %88 = icmp slt i32 %87, 1
  br i1 %88, label %89, label %JS_FreeValue.exit32

89:                                               ; preds = %84
  call void @__JS_FreeValue(ptr noundef %0, i64 %80, i64 %81) #29
  br label %JS_FreeValue.exit32

JS_FreeValue.exit32:                              ; preds = %JS_DupValue.exit, %84, %89
  %90 = getelementptr inbounds i8, ptr %8, i64 16
  %91 = load i64, ptr %90, align 16
  %92 = getelementptr inbounds i8, ptr %8, i64 24
  %93 = load i64, ptr %92, align 8
  %94 = trunc i64 %93 to i32
  %95 = icmp ugt i32 %94, -12
  br i1 %95, label %96, label %JS_FreeValue.exit33

96:                                               ; preds = %JS_FreeValue.exit32
  %97 = inttoptr i64 %91 to ptr
  %98 = load i32, ptr %97, align 4
  %99 = add i32 %98, -1
  store i32 %99, ptr %97, align 4
  %100 = icmp slt i32 %99, 1
  br i1 %100, label %101, label %JS_FreeValue.exit33

101:                                              ; preds = %96
  call void @__JS_FreeValue(ptr noundef %0, i64 %91, i64 %93) #29
  br label %JS_FreeValue.exit33

JS_FreeValue.exit33:                              ; preds = %JS_FreeValue.exit32, %96, %101
  %.sroa.5.0.extract.shift = and i64 %17, -4294967296
  %102 = and i64 %17, 4294967295
  br label %JS_FreeValue.exit31

JS_FreeValue.exit31:                              ; preds = %53, %48, %JS_FreeValue.exit30, %15, %5, %JS_FreeValue.exit33
  %.sroa.024.0 = phi i64 [ %102, %JS_FreeValue.exit33 ], [ 0, %5 ], [ 0, %15 ], [ 0, %JS_FreeValue.exit30 ], [ 0, %48 ], [ 0, %53 ]
  %.sroa.5.sroa.0.0 = phi i64 [ %.sroa.5.0.extract.shift, %JS_FreeValue.exit33 ], [ 0, %5 ], [ 0, %15 ], [ 0, %JS_FreeValue.exit30 ], [ 0, %48 ], [ 0, %53 ]
  %.sroa.5.sroa.2.0 = phi i64 [ %18, %JS_FreeValue.exit33 ], [ 6, %5 ], [ 6, %15 ], [ 6, %JS_FreeValue.exit30 ], [ 6, %48 ], [ 6, %53 ]
  %.sroa.024.0.insert.insert = or disjoint i64 %.sroa.5.sroa.0.0, %.sroa.024.0
  %.fca.0.insert = insertvalue { i64, i64 } poison, i64 %.sroa.024.0.insert.insert, 0
  %.fca.1.insert = insertvalue { i64, i64 } %.fca.0.insert, i64 %.sroa.5.sroa.2.0, 1
  ret { i64, i64 } %.fca.1.insert
}